; Function Attrs: mustprogress nofree nounwind willreturn memory(inaccessiblemem: readwrite) uwtable
define noalias noundef ptr @Dsc_alloc_pool(i32 noundef %0) local_unnamed_addr #3 {
  %2 = icmp slt i32 %0, 7
  %3 = add nsw i32 %0, -6
  %4 = shl i32 3, %3
  %5 = select i1 %2, i32 3, i32 %4
  %6 = mul nsw i32 %5, %0
  %7 = sext i32 %6 to i64
  %8 = shl nsw i64 %7, 3
  %9 = tail call noalias ptr @malloc(i64 noundef %8) #19
  ret ptr %9
}